target datalayout = "e-m:e-p270:32:32-p271:32:32-p272:64:64-i64:64-i128:128-f80:128-n8:16:32:64-S128"
target triple = "x86_64-pc-linux-gnu"

%"class.google::protobuf::stringpiece_internal::StringPiece" = type { ptr, i64 }
%"class.google::protobuf::strings::ArrayByteSource" = type { %"class.google::protobuf::strings::ByteSource", %"class.google::protobuf::stringpiece_internal::StringPiece" }
%"class.google::protobuf::strings::ByteSource" = type { ptr }

; Function Attrs: mustprogress nounwind uwtable
define hidden { ptr, i64 } @_ZN6google8protobuf7strings15ArrayByteSource4PeekEv(ptr noundef nonnull align 8 dereferenceable(24) %0) unnamed_addr #6 align 2 {
  %2 = alloca %"class.google::protobuf::stringpiece_internal::StringPiece", align 8
  %3 = alloca ptr, align 8
  store ptr %0, ptr %3, align 8, !tbaa !53
  %4 = load ptr, ptr %3, align 8
  %5 = getelementptr inbounds nuw %"class.google::protobuf::strings::ArrayByteSource", ptr %4, i32 0, i32 1
  call void @llvm.memcpy.p0.p0.i64(ptr align 8 %2, ptr align 8 %5, i64 16, i1 false), !tbaa.struct !55
  %6 = load { ptr, i64 }, ptr %2, align 8
  ret { ptr, i64 } %6
}